; Function Attrs: mustprogress nofree norecurse nosync nounwind willreturn memory(argmem: read) uwtable
define hidden noundef zeroext i1 @_ZN3sat6solver14should_reorderEv(ptr nocapture noundef nonnull readonly align 8 dereferenceable(4408) %this) local_unnamed_addr #19 align 2 {
entry:
  %m_conflicts_since_init = getelementptr inbounds i8, ptr %this, i64 4176
  %0 = load i32, ptr %m_conflicts_since_init, align 8
  %limit.i = getelementptr inbounds i8, ptr %this, i64 3716
  %1 = load i32, ptr %limit.i, align 4
  %cmp.not.i = icmp ugt i32 %1, %0
  %lo.i = getelementptr inbounds i8, ptr %this, i64 3708
  %2 = load i32, ptr %lo.i, align 4
  %cmp2.not.i = icmp ugt i32 %2, %0
  %or.cond.i = select i1 %cmp.not.i, i1 true, i1 %cmp2.not.i
  br i1 %or.cond.i, label %_ZNK3sat7backoff12should_applyEj.exit, label %land.rhs.i

land.rhs.i:                                       ; preds = %entry
  %hi.i = getelementptr inbounds i8, ptr %this, i64 3712
  %3 = load i32, ptr %hi.i, align 8
  %cmp3.i = icmp uge i32 %3, %0
  br label %_ZNK3sat7backoff12should_applyEj.exit

_ZNK3sat7backoff12should_applyEj.exit:            ; preds = %entry, %land.rhs.i
  %4 = phi i1 [ false, %entry ], [ %cmp3.i, %land.rhs.i ]
  ret i1 %4
}